
lab04_1_b1.elf:     file format elf32-littleriscv


Disassembly of section .text:

00010094 <_start>:
   10094:	00f00093          	li	ra,15
   10098:	00001117          	auipc	sp,0x1
   1009c:	10410113          	addi	sp,sp,260 # 1119c <__DATA_BEGIN__>
   100a0:	00001197          	auipc	gp,0x1
   100a4:	13c18193          	addi	gp,gp,316 # 111dc <V2>
   100a8:	00001217          	auipc	tp,0x1
   100ac:	17420213          	addi	tp,tp,372 # 1121c <b>
   100b0:	00001297          	auipc	t0,0x1
   100b4:	17028293          	addi	t0,t0,368 # 11220 <y>
   100b8:	00000313          	li	t1,0
   100bc:	0ff00393          	li	t2,255
   100c0:	f0000053          	fmv.w.x	ft0,zero
   100c4:	03c10113          	addi	sp,sp,60
   100c8:	03c18193          	addi	gp,gp,60 # 119d8 <__global_pointer$+0x3c>
   100cc:	00012087          	flw	ft1,0(sp)
   100d0:	0001a107          	flw	ft2,0(gp) # 1199c <__global_pointer$>

000100d4 <for>:
   100d4:	0800ca63          	bltz	ra,10168 <End>
   100d8:	1020f1d3          	fmul.s	ft3,ft1,ft2
   100dc:	fff08093          	addi	ra,ra,-1
   100e0:	ffc10113          	addi	sp,sp,-4
   100e4:	ffc18193          	addi	gp,gp,-4 # 11998 <__BSS_END__+0x774>
   100e8:	00307053          	fadd.s	ft0,ft0,ft3
   100ec:	00012087          	flw	ft1,0(sp)
   100f0:	0001a107          	flw	ft2,0(gp) # 1199c <__global_pointer$>
   100f4:	0600ca63          	bltz	ra,10168 <End>
   100f8:	00012087          	flw	ft1,0(sp)
   100fc:	0001a107          	flw	ft2,0(gp) # 1199c <__global_pointer$>
   10100:	1020f1d3          	fmul.s	ft3,ft1,ft2
   10104:	fff08093          	addi	ra,ra,-1
   10108:	ffc10113          	addi	sp,sp,-4
   1010c:	ffc18193          	addi	gp,gp,-4 # 11998 <__BSS_END__+0x774>
   10110:	00307053          	fadd.s	ft0,ft0,ft3
   10114:	00012087          	flw	ft1,0(sp)
   10118:	0001a107          	flw	ft2,0(gp) # 1199c <__global_pointer$>
   1011c:	0400c663          	bltz	ra,10168 <End>
   10120:	1020f1d3          	fmul.s	ft3,ft1,ft2
   10124:	fff08093          	addi	ra,ra,-1
   10128:	ffc10113          	addi	sp,sp,-4
   1012c:	ffc18193          	addi	gp,gp,-4 # 11998 <__BSS_END__+0x774>
   10130:	00307053          	fadd.s	ft0,ft0,ft3
   10134:	00012087          	flw	ft1,0(sp)
   10138:	0001a107          	flw	ft2,0(gp) # 1199c <__global_pointer$>
   1013c:	0200c663          	bltz	ra,10168 <End>
   10140:	00012087          	flw	ft1,0(sp)
   10144:	0001a107          	flw	ft2,0(gp) # 1199c <__global_pointer$>
   10148:	1020f1d3          	fmul.s	ft3,ft1,ft2
   1014c:	fff08093          	addi	ra,ra,-1
   10150:	ffc10113          	addi	sp,sp,-4
   10154:	ffc18193          	addi	gp,gp,-4 # 11998 <__BSS_END__+0x774>
   10158:	00307053          	fadd.s	ft0,ft0,ft3
   1015c:	00012087          	flw	ft1,0(sp)
   10160:	0001a107          	flw	ft2,0(gp) # 1199c <__global_pointer$>
   10164:	f71ff06f          	j	100d4 <for>

00010168 <End>:
   10168:	00000413          	li	s0,0
   1016c:	00022403          	lw	s0,0(tp) # 0 <_start-0x10094>
   10170:	d0047253          	fcvt.s.w	ft4,s0
   10174:	00407053          	fadd.s	ft0,ft0,ft4

00010178 <check>:
   10178:	e0000353          	fmv.x.w	t1,ft0
   1017c:	01735313          	srli	t1,t1,0x17
   10180:	00730463          	beq	t1,t2,10188 <is_nan>
   10184:	0080006f          	j	1018c <store_result>

00010188 <is_nan>:
   10188:	f0000053          	fmv.w.x	ft0,zero

0001018c <store_result>:
   1018c:	e0000453          	fmv.x.w	s0,ft0
   10190:	0082a023          	sw	s0,0(t0)

00010194 <exit>:
   10194:	00a00893          	li	a7,10
   10198:	00000073          	ecall
