
calculate_pi.elf:     file format elf32-littleriscv


Disassembly of section .text:

00010094 <_start>:
   10094:	00001297          	auipc	t0,0x1
   10098:	0ac2a007          	flw	ft0,172(t0) # 11140 <one>
   1009c:	00001297          	auipc	t0,0x1
   100a0:	0982a087          	flw	ft1,152(t0) # 11134 <sixteen>
   100a4:	00001297          	auipc	t0,0x1
   100a8:	0942a107          	flw	ft2,148(t0) # 11138 <four>
   100ac:	00001297          	auipc	t0,0x1
   100b0:	0902a187          	flw	ft3,144(t0) # 1113c <two>
   100b4:	00001297          	auipc	t0,0x1
   100b8:	0902a207          	flw	ft4,144(t0) # 11144 <eight>
   100bc:	20000553          	fmv.s	fa0,ft0
   100c0:	200005d3          	fmv.s	fa1,ft0
   100c4:	03200313          	li	t1,50
   100c8:	00000393          	li	t2,0

000100cc <bbp_loop>:
   100cc:	04638a63          	beq	t2,t1,10120 <bbp_finish>
   100d0:	d003f653          	fcvt.s.w	fa2,t2
   100d4:	10c276d3          	fmul.s	fa3,ft4,fa2
   100d8:	0006f753          	fadd.s	fa4,fa3,ft0
   100dc:	18e177d3          	fdiv.s	fa5,ft2,fa4
   100e0:	0026f753          	fadd.s	fa4,fa3,ft2
   100e4:	18e1f853          	fdiv.s	fa6,ft3,fa4
   100e8:	0907f7d3          	fsub.s	fa5,fa5,fa6
   100ec:	0026f753          	fadd.s	fa4,fa3,ft2
   100f0:	00077753          	fadd.s	fa4,fa4,ft0
   100f4:	18e07853          	fdiv.s	fa6,ft0,fa4
   100f8:	0907f7d3          	fsub.s	fa5,fa5,fa6
   100fc:	0026f753          	fadd.s	fa4,fa3,ft2
   10100:	00377753          	fadd.s	fa4,fa4,ft3
   10104:	18e07853          	fdiv.s	fa6,ft0,fa4
   10108:	0907f7d3          	fsub.s	fa5,fa5,fa6
   1010c:	10b7f7d3          	fmul.s	fa5,fa5,fa1
   10110:	00f57553          	fadd.s	fa0,fa0,fa5
   10114:	1815f5d3          	fdiv.s	fa1,fa1,ft1
   10118:	00138393          	addi	t2,t2,1
   1011c:	fb1ff06f          	j	100cc <bbp_loop>

00010120 <bbp_finish>:
   10120:	00001297          	auipc	t0,0x1
   10124:	00a2a827          	fsw	fa0,16(t0) # 11130 <__DATA_BEGIN__>
   10128:	00a00893          	li	a7,10
   1012c:	00000073          	ecall
